(dp0
S'basket_blue'
p1
((I0
I0
I0
tp2
(I255
I255
I255
tp3
tp4
sS'ball'
p5
((I0
I84
I0
tp6
(I176
I157
I160
tp7
tp8
sS'basket_magenta'
p9
((I0
I0
I0
tp10
(I255
I255
I255
tp11
tp12
sS'temp'
p13
I100
sS'carpet'
p14
((I0
I0
I0
tp15
(I255
I255
I255
tp16
tp17
s.